; Function Attrs: mustprogress nounwind uwtable
define dso_local noundef ptr @_ZN4llvm12ConstantExpr10getBitCastEPNS_8ConstantEPNS_4TypeEb(ptr noundef %0, ptr noundef %1, i1 noundef zeroext %2) local_unnamed_addr #0 align 2 {
  %4 = getelementptr inbounds nuw i8, ptr %0, i64 8
  %5 = load ptr, ptr %4, align 8
  %6 = icmp eq ptr %5, %1
  br i1 %6, label %9, label %7

7:                                                ; preds = %3
  %8 = tail call fastcc noundef ptr @_ZL13getFoldedCastN4llvm11Instruction7CastOpsEPNS_8ConstantEPNS_4TypeEb(i32 noundef 49, ptr noundef nonnull %0, ptr noundef %1, i1 noundef zeroext %2)
  br label %9

9:                                                ; preds = %3, %7
  %.0 = phi ptr [ %8, %7 ], [ %0, %3 ]
  ret ptr %.0
}